target datalayout = "e-m:e-p270:32:32-p271:32:32-p272:64:64-i64:64-i128:128-f80:128-n8:16:32:64-S128"
target triple = "x86_64-pc-linux-gnu"

%struct.DdNode = type { i32, i32, ptr, %union.anon, i64 }
%union.anon = type { %struct.DdChildren }
%struct.DdChildren = type { ptr, ptr }
%struct.DdManager = type { %struct.DdNode, ptr, ptr, ptr, ptr, ptr, ptr, ptr, i32, i32, double, double, double, i32, i32, i32, i32, i32, i32, ptr, ptr, %struct.DdSubtable, i32, i32, i32, i32, i32, i32, i32, double, i32, i32, i32, ptr, i64, double, i32, ptr, ptr, ptr, ptr, ptr, ptr, ptr, i32, ptr, ptr, ptr, ptr, ptr, ptr, i32, i32, i32, double, i32, i32, i32, i32, double, double, i32, i32, i32, i32, i32, i32, i32, i32, i32, ptr, ptr, i32, i32, i32, i32, i32, i32, ptr, ptr, ptr, ptr, ptr, ptr, ptr, ptr, i32, i64, i64, i64, i32, i64, i64, double, double, double, double, double, double, i32, ptr, ptr, i64 }
%struct.DdSubtable = type { ptr, i32, i32, i32, i32, i32, i32, i32, i32, i32, i32, i32 }

; Function Attrs: nounwind uwtable
define internal ptr @addDoIthBit(ptr noundef %0, ptr noundef %1, ptr noundef %2) #0 {
  %4 = alloca ptr, align 8
  %5 = alloca ptr, align 8
  %6 = alloca ptr, align 8
  %7 = alloca ptr, align 8
  %8 = alloca ptr, align 8
  %9 = alloca ptr, align 8
  %10 = alloca ptr, align 8
  %11 = alloca ptr, align 8
  %12 = alloca ptr, align 8
  %13 = alloca i32, align 4
  %14 = alloca i32, align 4
  %15 = alloca i32, align 4
  %16 = alloca i32, align 4
  store ptr %0, ptr %5, align 8, !tbaa !3
  store ptr %1, ptr %6, align 8, !tbaa !8
  store ptr %2, ptr %7, align 8, !tbaa !8
  call void @llvm.lifetime.start.p0(i64 8, ptr %8) #3
  call void @llvm.lifetime.start.p0(i64 8, ptr %9) #3
  call void @llvm.lifetime.start.p0(i64 8, ptr %10) #3
  call void @llvm.lifetime.start.p0(i64 8, ptr %11) #3
  call void @llvm.lifetime.start.p0(i64 8, ptr %12) #3
  call void @llvm.lifetime.start.p0(i64 4, ptr %13) #3
  call void @llvm.lifetime.start.p0(i64 4, ptr %14) #3
  call void @llvm.lifetime.start.p0(i64 4, ptr %15) #3
  %17 = load ptr, ptr %6, align 8, !tbaa !8
  %18 = getelementptr inbounds nuw %struct.DdNode, ptr %17, i32 0, i32 0
  %19 = load i32, ptr %18, align 8, !tbaa !10
  %20 = icmp eq i32 %19, 2147483647
  br i1 %20, label %21, label %45

21:                                               ; preds = %3
  %22 = load ptr, ptr %7, align 8, !tbaa !8
  %23 = getelementptr inbounds nuw %struct.DdNode, ptr %22, i32 0, i32 3
  %24 = load double, ptr %23, align 8, !tbaa !14
  %25 = fptosi double %24 to i32
  %26 = shl i32 1, %25
  store i32 %26, ptr %13, align 4, !tbaa !30
  %27 = load ptr, ptr %6, align 8, !tbaa !8
  %28 = getelementptr inbounds nuw %struct.DdNode, ptr %27, i32 0, i32 3
  %29 = load double, ptr %28, align 8, !tbaa !14
  %30 = fptosi double %29 to i32
  store i32 %30, ptr %14, align 4, !tbaa !30
  %31 = load i32, ptr %14, align 4, !tbaa !30
  %32 = load i32, ptr %13, align 4, !tbaa !30
  %33 = and i32 %31, %32
  %34 = icmp eq i32 %33, 0
  br i1 %34, label %35, label %39

35:                                               ; preds = %21
  %36 = load ptr, ptr %5, align 8, !tbaa !3
  %37 = getelementptr inbounds nuw %struct.DdManager, ptr %36, i32 0, i32 2
  %38 = load ptr, ptr %37, align 8, !tbaa !35
  br label %43

39:                                               ; preds = %21
  %40 = load ptr, ptr %5, align 8, !tbaa !3
  %41 = getelementptr inbounds nuw %struct.DdManager, ptr %40, i32 0, i32 1
  %42 = load ptr, ptr %41, align 8, !tbaa !36
  br label %43

43:                                               ; preds = %39, %35
  %44 = phi ptr [ %38, %35 ], [ %42, %39 ]
  store ptr %44, ptr %4, align 8
  store i32 1, ptr %16, align 4
  br label %138

45:                                               ; preds = %3
  %46 = load ptr, ptr %5, align 8, !tbaa !3
  %47 = load ptr, ptr %6, align 8, !tbaa !8
  %48 = load ptr, ptr %7, align 8, !tbaa !8
  %49 = call ptr @cuddCacheLookup2(ptr noundef %46, ptr noundef @addDoIthBit, ptr noundef %47, ptr noundef %48)
  store ptr %49, ptr %8, align 8, !tbaa !8
  %50 = load ptr, ptr %8, align 8, !tbaa !8
  %51 = icmp ne ptr %50, null
  br i1 %51, label %52, label %54

52:                                               ; preds = %45
  %53 = load ptr, ptr %8, align 8, !tbaa !8
  store ptr %53, ptr %4, align 8
  store i32 1, ptr %16, align 4
  br label %138

54:                                               ; preds = %45
  %55 = load ptr, ptr %6, align 8, !tbaa !8
  %56 = getelementptr inbounds nuw %struct.DdNode, ptr %55, i32 0, i32 0
  %57 = load i32, ptr %56, align 8, !tbaa !10
  store i32 %57, ptr %15, align 4, !tbaa !30
  %58 = load ptr, ptr %6, align 8, !tbaa !8
  %59 = getelementptr inbounds nuw %struct.DdNode, ptr %58, i32 0, i32 3
  %60 = getelementptr inbounds nuw %struct.DdChildren, ptr %59, i32 0, i32 0
  %61 = load ptr, ptr %60, align 8, !tbaa !14
  store ptr %61, ptr %11, align 8, !tbaa !8
  %62 = load ptr, ptr %6, align 8, !tbaa !8
  %63 = getelementptr inbounds nuw %struct.DdNode, ptr %62, i32 0, i32 3
  %64 = getelementptr inbounds nuw %struct.DdChildren, ptr %63, i32 0, i32 1
  %65 = load ptr, ptr %64, align 8, !tbaa !14
  store ptr %65, ptr %12, align 8, !tbaa !8
  %66 = load ptr, ptr %5, align 8, !tbaa !3
  %67 = load ptr, ptr %11, align 8, !tbaa !8
  %68 = load ptr, ptr %7, align 8, !tbaa !8
  %69 = call ptr @addDoIthBit(ptr noundef %66, ptr noundef %67, ptr noundef %68)
  store ptr %69, ptr %9, align 8, !tbaa !8
  %70 = load ptr, ptr %9, align 8, !tbaa !8
  %71 = icmp eq ptr %70, null
  br i1 %71, label %72, label %73

72:                                               ; preds = %54
  store ptr null, ptr %4, align 8
  store i32 1, ptr %16, align 4
  br label %138

73:                                               ; preds = %54
  %74 = load ptr, ptr %9, align 8, !tbaa !8
  %75 = ptrtoint ptr %74 to i64
  %76 = and i64 %75, -2
  %77 = inttoptr i64 %76 to ptr
  %78 = getelementptr inbounds nuw %struct.DdNode, ptr %77, i32 0, i32 1
  %79 = load i32, ptr %78, align 4, !tbaa !31
  %80 = add i32 %79, 1
  store i32 %80, ptr %78, align 4, !tbaa !31
  %81 = load ptr, ptr %5, align 8, !tbaa !3
  %82 = load ptr, ptr %12, align 8, !tbaa !8
  %83 = load ptr, ptr %7, align 8, !tbaa !8
  %84 = call ptr @addDoIthBit(ptr noundef %81, ptr noundef %82, ptr noundef %83)
  store ptr %84, ptr %10, align 8, !tbaa !8
  %85 = load ptr, ptr %10, align 8, !tbaa !8
  %86 = icmp eq ptr %85, null
  br i1 %86, label %87, label %90

87:                                               ; preds = %73
  %88 = load ptr, ptr %5, align 8, !tbaa !3
  %89 = load ptr, ptr %9, align 8, !tbaa !8
  call void @Cudd_RecursiveDeref(ptr noundef %88, ptr noundef %89)
  store ptr null, ptr %4, align 8
  store i32 1, ptr %16, align 4
  br label %138

90:                                               ; preds = %73
  %91 = load ptr, ptr %10, align 8, !tbaa !8
  %92 = ptrtoint ptr %91 to i64
  %93 = and i64 %92, -2
  %94 = inttoptr i64 %93 to ptr
  %95 = getelementptr inbounds nuw %struct.DdNode, ptr %94, i32 0, i32 1
  %96 = load i32, ptr %95, align 4, !tbaa !31
  %97 = add i32 %96, 1
  store i32 %97, ptr %95, align 4, !tbaa !31
  %98 = load ptr, ptr %9, align 8, !tbaa !8
  %99 = load ptr, ptr %10, align 8, !tbaa !8
  %100 = icmp eq ptr %98, %99
  br i1 %100, label %101, label %103

101:                                              ; preds = %90
  %102 = load ptr, ptr %9, align 8, !tbaa !8
  br label %109

103:                                              ; preds = %90
  %104 = load ptr, ptr %5, align 8, !tbaa !3
  %105 = load i32, ptr %15, align 4, !tbaa !30
  %106 = load ptr, ptr %9, align 8, !tbaa !8
  %107 = load ptr, ptr %10, align 8, !tbaa !8
  %108 = call ptr @cuddUniqueInter(ptr noundef %104, i32 noundef %105, ptr noundef %106, ptr noundef %107)
  br label %109

109:                                              ; preds = %103, %101
  %110 = phi ptr [ %102, %101 ], [ %108, %103 ]
  store ptr %110, ptr %8, align 8, !tbaa !8
  %111 = load ptr, ptr %8, align 8, !tbaa !8
  %112 = icmp eq ptr %111, null
  br i1 %112, label %113, label %118

113:                                              ; preds = %109
  %114 = load ptr, ptr %5, align 8, !tbaa !3
  %115 = load ptr, ptr %9, align 8, !tbaa !8
  call void @Cudd_RecursiveDeref(ptr noundef %114, ptr noundef %115)
  %116 = load ptr, ptr %5, align 8, !tbaa !3
  %117 = load ptr, ptr %10, align 8, !tbaa !8
  call void @Cudd_RecursiveDeref(ptr noundef %116, ptr noundef %117)
  store ptr null, ptr %4, align 8
  store i32 1, ptr %16, align 4
  br label %138

118:                                              ; preds = %109
  %119 = load ptr, ptr %9, align 8, !tbaa !8
  %120 = ptrtoint ptr %119 to i64
  %121 = and i64 %120, -2
  %122 = inttoptr i64 %121 to ptr
  %123 = getelementptr inbounds nuw %struct.DdNode, ptr %122, i32 0, i32 1
  %124 = load i32, ptr %123, align 4, !tbaa !31
  %125 = add i32 %124, -1
  store i32 %125, ptr %123, align 4, !tbaa !31
  %126 = load ptr, ptr %10, align 8, !tbaa !8
  %127 = ptrtoint ptr %126 to i64
  %128 = and i64 %127, -2
  %129 = inttoptr i64 %128 to ptr
  %130 = getelementptr inbounds nuw %struct.DdNode, ptr %129, i32 0, i32 1
  %131 = load i32, ptr %130, align 4, !tbaa !31
  %132 = add i32 %131, -1
  store i32 %132, ptr %130, align 4, !tbaa !31
  %133 = load ptr, ptr %5, align 8, !tbaa !3
  %134 = load ptr, ptr %6, align 8, !tbaa !8
  %135 = load ptr, ptr %7, align 8, !tbaa !8
  %136 = load ptr, ptr %8, align 8, !tbaa !8
  call void @cuddCacheInsert2(ptr noundef %133, ptr noundef @addDoIthBit, ptr noundef %134, ptr noundef %135, ptr noundef %136)
  %137 = load ptr, ptr %8, align 8, !tbaa !8
  store ptr %137, ptr %4, align 8
  store i32 1, ptr %16, align 4
  br label %138

138:                                              ; preds = %118, %113, %87, %72, %52, %43
  call void @llvm.lifetime.end.p0(i64 4, ptr %15) #3
  call void @llvm.lifetime.end.p0(i64 4, ptr %14) #3
  call void @llvm.lifetime.end.p0(i64 4, ptr %13) #3
  call void @llvm.lifetime.end.p0(i64 8, ptr %12) #3
  call void @llvm.lifetime.end.p0(i64 8, ptr %11) #3
  call void @llvm.lifetime.end.p0(i64 8, ptr %10) #3
  call void @llvm.lifetime.end.p0(i64 8, ptr %9) #3
  call void @llvm.lifetime.end.p0(i64 8, ptr %8) #3
  %139 = load ptr, ptr %4, align 8
  ret ptr %139
}