; Function Attrs: nounwind uwtable
define internal ptr @addDoIthBit(ptr noundef %0, ptr noundef %1, ptr noundef %2) #0 {
  %4 = load i32, ptr %1, align 8, !tbaa !3
  %5 = icmp eq i32 %4, 2147483647
  br i1 %5, label %6, label %17

6:                                                ; preds = %3
  %7 = getelementptr inbounds nuw i8, ptr %2, i64 16
  %8 = load double, ptr %7, align 8, !tbaa !11
  %9 = fptosi double %8 to i32
  %10 = shl nuw i32 1, %9
  %11 = getelementptr inbounds nuw i8, ptr %1, i64 16
  %12 = load double, ptr %11, align 8, !tbaa !11
  %13 = fptosi double %12 to i32
  %14 = and i32 %10, %13
  %15 = icmp eq i32 %14, 0
  %.in.v = select i1 %15, i64 48, i64 40
  %.in = getelementptr inbounds nuw i8, ptr %0, i64 %.in.v
  %16 = load ptr, ptr %.in, align 8, !tbaa !31
  br label %54

17:                                               ; preds = %3
  %18 = tail call ptr @cuddCacheLookup2(ptr noundef %0, ptr noundef nonnull @addDoIthBit, ptr noundef nonnull %1, ptr noundef %2) #2
  %.not = icmp eq ptr %18, null
  br i1 %.not, label %19, label %54

19:                                               ; preds = %17
  %20 = load i32, ptr %1, align 8, !tbaa !3
  %21 = getelementptr inbounds nuw i8, ptr %1, i64 16
  %22 = load ptr, ptr %21, align 8, !tbaa !11
  %23 = getelementptr inbounds nuw i8, ptr %1, i64 24
  %24 = load ptr, ptr %23, align 8, !tbaa !11
  %25 = tail call ptr @addDoIthBit(ptr noundef %0, ptr noundef %22, ptr noundef %2)
  %26 = icmp eq ptr %25, null
  br i1 %26, label %54, label %27

27:                                               ; preds = %19
  %28 = ptrtoint ptr %25 to i64
  %29 = and i64 %28, -2
  %30 = inttoptr i64 %29 to ptr
  %31 = getelementptr inbounds nuw i8, ptr %30, i64 4
  %32 = load i32, ptr %31, align 4, !tbaa !27
  %33 = add i32 %32, 1
  store i32 %33, ptr %31, align 4, !tbaa !27
  %34 = tail call ptr @addDoIthBit(ptr noundef %0, ptr noundef %24, ptr noundef %2)
  %35 = icmp eq ptr %34, null
  br i1 %35, label %36, label %37

36:                                               ; preds = %27
  tail call void @Cudd_RecursiveDeref(ptr noundef %0, ptr noundef nonnull %25) #2
  br label %54

37:                                               ; preds = %27
  %38 = ptrtoint ptr %34 to i64
  %39 = and i64 %38, -2
  %40 = inttoptr i64 %39 to ptr
  %41 = getelementptr inbounds nuw i8, ptr %40, i64 4
  %42 = load i32, ptr %41, align 4, !tbaa !27
  %43 = add i32 %42, 1
  store i32 %43, ptr %41, align 4, !tbaa !27
  %44 = icmp eq ptr %25, %34
  br i1 %44, label %.thread, label %45

45:                                               ; preds = %37
  %46 = tail call ptr @cuddUniqueInter(ptr noundef %0, i32 noundef %20, ptr noundef nonnull %25, ptr noundef nonnull %34) #2
  %47 = icmp eq ptr %46, null
  br i1 %47, label %48, label %.thread

48:                                               ; preds = %45
  tail call void @Cudd_RecursiveDeref(ptr noundef %0, ptr noundef nonnull %25) #2
  tail call void @Cudd_RecursiveDeref(ptr noundef %0, ptr noundef nonnull %34) #2
  br label %54

.thread:                                          ; preds = %37, %45
  %49 = phi ptr [ %46, %45 ], [ %25, %37 ]
  %50 = load i32, ptr %31, align 4, !tbaa !27
  %51 = add i32 %50, -1
  store i32 %51, ptr %31, align 4, !tbaa !27
  %52 = load i32, ptr %41, align 4, !tbaa !27
  %53 = add i32 %52, -1
  store i32 %53, ptr %41, align 4, !tbaa !27
  tail call void @cuddCacheInsert2(ptr noundef %0, ptr noundef nonnull @addDoIthBit, ptr noundef nonnull %1, ptr noundef %2, ptr noundef nonnull %49) #2
  br label %54

54:                                               ; preds = %19, %17, %.thread, %48, %36, %6
  %.0 = phi ptr [ %16, %6 ], [ null, %36 ], [ null, %48 ], [ %49, %.thread ], [ %18, %17 ], [ null, %19 ]
  ret ptr %.0
}